target datalayout = "e-m:e-p270:32:32-p271:32:32-p272:64:64-i64:64-i128:128-f80:128-n8:16:32:64-S128"
target triple = "x86_64-pc-linux-gnu"

@.str.1 = private unnamed_addr constant [32 x i8] c"../openssl/crypto/pem/pem_lib.c\00", align 1
@.str.9 = private unnamed_addr constant [2 x i8] c"\0A\00", align 1
@.str.16 = private unnamed_addr constant [12 x i8] c"-----BEGIN \00", align 1
@.str.17 = private unnamed_addr constant [7 x i8] c"-----\0A\00", align 1
@.str.18 = private unnamed_addr constant [10 x i8] c"-----END \00", align 1
@__func__.PEM_write_bio = private unnamed_addr constant [14 x i8] c"PEM_write_bio\00", align 1

; Function Attrs: nounwind uwtable
define i32 @PEM_write_bio(ptr noundef %0, ptr noundef %1, ptr noundef %2, ptr noundef %3, i64 noundef %4) #0 {
  %6 = alloca ptr, align 8
  %7 = alloca ptr, align 8
  %8 = alloca ptr, align 8
  %9 = alloca ptr, align 8
  %10 = alloca i64, align 8
  %11 = alloca i32, align 4
  %12 = alloca i32, align 4
  %13 = alloca i32, align 4
  %14 = alloca i32, align 4
  %15 = alloca i32, align 4
  %16 = alloca ptr, align 8
  %17 = alloca ptr, align 8
  %18 = alloca i32, align 4
  %19 = alloca i32, align 4
  store ptr %0, ptr %6, align 8, !tbaa !18
  store ptr %1, ptr %7, align 8, !tbaa !3
  store ptr %2, ptr %8, align 8, !tbaa !3
  store ptr %3, ptr %9, align 8, !tbaa !3
  store i64 %4, ptr %10, align 8, !tbaa !11
  call void @llvm.lifetime.start.p0(i64 4, ptr %11) #8
  call void @llvm.lifetime.start.p0(i64 4, ptr %12) #8
  call void @llvm.lifetime.start.p0(i64 4, ptr %13) #8
  call void @llvm.lifetime.start.p0(i64 4, ptr %14) #8
  call void @llvm.lifetime.start.p0(i64 4, ptr %15) #8
  call void @llvm.lifetime.start.p0(i64 8, ptr %16) #8
  store ptr null, ptr %16, align 8, !tbaa !3
  call void @llvm.lifetime.start.p0(i64 8, ptr %17) #8
  %20 = call ptr @EVP_ENCODE_CTX_new()
  store ptr %20, ptr %17, align 8, !tbaa !35
  call void @llvm.lifetime.start.p0(i64 4, ptr %18) #8
  store i32 0, ptr %18, align 4, !tbaa !8
  call void @llvm.lifetime.start.p0(i64 4, ptr %19) #8
  store i32 0, ptr %19, align 4, !tbaa !8
  %21 = load ptr, ptr %17, align 8, !tbaa !35
  %22 = icmp eq ptr %21, null
  br i1 %22, label %23, label %24

23:                                               ; preds = %5
  store i32 524294, ptr %18, align 4, !tbaa !8
  br label %152

24:                                               ; preds = %5
  %25 = load ptr, ptr %17, align 8, !tbaa !35
  call void @EVP_EncodeInit(ptr noundef %25)
  %26 = load ptr, ptr %7, align 8, !tbaa !3
  %27 = call i64 @strlen(ptr noundef %26) #9
  %28 = trunc i64 %27 to i32
  store i32 %28, ptr %11, align 4, !tbaa !8
  %29 = load ptr, ptr %6, align 8, !tbaa !18
  %30 = call i32 @BIO_write(ptr noundef %29, ptr noundef @.str.16, i32 noundef 11)
  %31 = icmp ne i32 %30, 11
  br i1 %31, label %43, label %32

32:                                               ; preds = %24
  %33 = load ptr, ptr %6, align 8, !tbaa !18
  %34 = load ptr, ptr %7, align 8, !tbaa !3
  %35 = load i32, ptr %11, align 4, !tbaa !8
  %36 = call i32 @BIO_write(ptr noundef %33, ptr noundef %34, i32 noundef %35)
  %37 = load i32, ptr %11, align 4, !tbaa !8
  %38 = icmp ne i32 %36, %37
  br i1 %38, label %43, label %39

39:                                               ; preds = %32
  %40 = load ptr, ptr %6, align 8, !tbaa !18
  %41 = call i32 @BIO_write(ptr noundef %40, ptr noundef @.str.17, i32 noundef 6)
  %42 = icmp ne i32 %41, 6
  br i1 %42, label %43, label %44

43:                                               ; preds = %39, %32, %24
  store i32 524320, ptr %18, align 4, !tbaa !8
  br label %152

44:                                               ; preds = %39
  %45 = load ptr, ptr %8, align 8, !tbaa !3
  %46 = icmp ne ptr %45, null
  br i1 %46, label %47, label %50

47:                                               ; preds = %44
  %48 = load ptr, ptr %8, align 8, !tbaa !3
  %49 = call i64 @strlen(ptr noundef %48) #9
  br label %51

50:                                               ; preds = %44
  br label %51

51:                                               ; preds = %50, %47
  %52 = phi i64 [ %49, %47 ], [ 0, %50 ]
  %53 = trunc i64 %52 to i32
  store i32 %53, ptr %13, align 4, !tbaa !8
  %54 = load i32, ptr %13, align 4, !tbaa !8
  %55 = icmp sgt i32 %54, 0
  br i1 %55, label %56, label %69

56:                                               ; preds = %51
  %57 = load ptr, ptr %6, align 8, !tbaa !18
  %58 = load ptr, ptr %8, align 8, !tbaa !3
  %59 = load i32, ptr %13, align 4, !tbaa !8
  %60 = call i32 @BIO_write(ptr noundef %57, ptr noundef %58, i32 noundef %59)
  %61 = load i32, ptr %13, align 4, !tbaa !8
  %62 = icmp ne i32 %60, %61
  br i1 %62, label %67, label %63

63:                                               ; preds = %56
  %64 = load ptr, ptr %6, align 8, !tbaa !18
  %65 = call i32 @BIO_write(ptr noundef %64, ptr noundef @.str.9, i32 noundef 1)
  %66 = icmp ne i32 %65, 1
  br i1 %66, label %67, label %68

67:                                               ; preds = %63, %56
  store i32 524320, ptr %18, align 4, !tbaa !8
  br label %152

68:                                               ; preds = %63
  br label %69

69:                                               ; preds = %68, %51
  %70 = call noalias ptr @CRYPTO_malloc(i64 noundef 8192, ptr noundef @.str.1, i32 noundef 666)
  store ptr %70, ptr %16, align 8, !tbaa !3
  %71 = load ptr, ptr %16, align 8, !tbaa !3
  %72 = icmp eq ptr %71, null
  br i1 %72, label %73, label %74

73:                                               ; preds = %69
  br label %152

74:                                               ; preds = %69
  store i32 0, ptr %14, align 4, !tbaa !8
  store i32 0, ptr %13, align 4, !tbaa !8
  br label %75

75:                                               ; preds = %108, %74
  %76 = load i64, ptr %10, align 8, !tbaa !11
  %77 = icmp sgt i64 %76, 0
  br i1 %77, label %78, label %119

78:                                               ; preds = %75
  %79 = load i64, ptr %10, align 8, !tbaa !11
  %80 = icmp sgt i64 %79, 5120
  br i1 %80, label %81, label %82

81:                                               ; preds = %78
  br label %84

82:                                               ; preds = %78
  %83 = load i64, ptr %10, align 8, !tbaa !11
  br label %84

84:                                               ; preds = %82, %81
  %85 = phi i64 [ 5120, %81 ], [ %83, %82 ]
  %86 = trunc i64 %85 to i32
  store i32 %86, ptr %12, align 4, !tbaa !8
  %87 = load ptr, ptr %17, align 8, !tbaa !35
  %88 = load ptr, ptr %16, align 8, !tbaa !3
  %89 = load ptr, ptr %9, align 8, !tbaa !3
  %90 = load i32, ptr %14, align 4, !tbaa !8
  %91 = sext i32 %90 to i64
  %92 = getelementptr inbounds i8, ptr %89, i64 %91
  %93 = load i32, ptr %12, align 4, !tbaa !8
  %94 = call i32 @EVP_EncodeUpdate(ptr noundef %87, ptr noundef %88, ptr noundef %15, ptr noundef %92, i32 noundef %93)
  %95 = icmp ne i32 %94, 0
  br i1 %95, label %97, label %96

96:                                               ; preds = %84
  store i32 524294, ptr %18, align 4, !tbaa !8
  br label %152

97:                                               ; preds = %84
  %98 = load i32, ptr %15, align 4, !tbaa !8
  %99 = icmp ne i32 %98, 0
  br i1 %99, label %100, label %108

100:                                              ; preds = %97
  %101 = load ptr, ptr %6, align 8, !tbaa !18
  %102 = load ptr, ptr %16, align 8, !tbaa !3
  %103 = load i32, ptr %15, align 4, !tbaa !8
  %104 = call i32 @BIO_write(ptr noundef %101, ptr noundef %102, i32 noundef %103)
  %105 = load i32, ptr %15, align 4, !tbaa !8
  %106 = icmp ne i32 %104, %105
  br i1 %106, label %107, label %108

107:                                              ; preds = %100
  store i32 524320, ptr %18, align 4, !tbaa !8
  br label %152

108:                                              ; preds = %100, %97
  %109 = load i32, ptr %15, align 4, !tbaa !8
  %110 = load i32, ptr %13, align 4, !tbaa !8
  %111 = add nsw i32 %110, %109
  store i32 %111, ptr %13, align 4, !tbaa !8
  %112 = load i32, ptr %12, align 4, !tbaa !8
  %113 = sext i32 %112 to i64
  %114 = load i64, ptr %10, align 8, !tbaa !11
  %115 = sub nsw i64 %114, %113
  store i64 %115, ptr %10, align 8, !tbaa !11
  %116 = load i32, ptr %12, align 4, !tbaa !8
  %117 = load i32, ptr %14, align 4, !tbaa !8
  %118 = add nsw i32 %117, %116
  store i32 %118, ptr %14, align 4, !tbaa !8
  br label %75, !llvm.loop !37

119:                                              ; preds = %75
  %120 = load ptr, ptr %17, align 8, !tbaa !35
  %121 = load ptr, ptr %16, align 8, !tbaa !3
  call void @EVP_EncodeFinal(ptr noundef %120, ptr noundef %121, ptr noundef %15)
  %122 = load i32, ptr %15, align 4, !tbaa !8
  %123 = icmp sgt i32 %122, 0
  br i1 %123, label %124, label %132

124:                                              ; preds = %119
  %125 = load ptr, ptr %6, align 8, !tbaa !18
  %126 = load ptr, ptr %16, align 8, !tbaa !3
  %127 = load i32, ptr %15, align 4, !tbaa !8
  %128 = call i32 @BIO_write(ptr noundef %125, ptr noundef %126, i32 noundef %127)
  %129 = load i32, ptr %15, align 4, !tbaa !8
  %130 = icmp ne i32 %128, %129
  br i1 %130, label %131, label %132

131:                                              ; preds = %124
  store i32 524320, ptr %18, align 4, !tbaa !8
  br label %152

132:                                              ; preds = %124, %119
  %133 = load ptr, ptr %6, align 8, !tbaa !18
  %134 = call i32 @BIO_write(ptr noundef %133, ptr noundef @.str.18, i32 noundef 9)
  %135 = icmp ne i32 %134, 9
  br i1 %135, label %147, label %136

136:                                              ; preds = %132
  %137 = load ptr, ptr %6, align 8, !tbaa !18
  %138 = load ptr, ptr %7, align 8, !tbaa !3
  %139 = load i32, ptr %11, align 4, !tbaa !8
  %140 = call i32 @BIO_write(ptr noundef %137, ptr noundef %138, i32 noundef %139)
  %141 = load i32, ptr %11, align 4, !tbaa !8
  %142 = icmp ne i32 %140, %141
  br i1 %142, label %147, label %143

143:                                              ; preds = %136
  %144 = load ptr, ptr %6, align 8, !tbaa !18
  %145 = call i32 @BIO_write(ptr noundef %144, ptr noundef @.str.17, i32 noundef 6)
  %146 = icmp ne i32 %145, 6
  br i1 %146, label %147, label %148

147:                                              ; preds = %143, %136, %132
  store i32 524320, ptr %18, align 4, !tbaa !8
  br label %152

148:                                              ; preds = %143
  %149 = load i32, ptr %13, align 4, !tbaa !8
  %150 = load i32, ptr %15, align 4, !tbaa !8
  %151 = add nsw i32 %149, %150
  store i32 %151, ptr %19, align 4, !tbaa !8
  br label %152

152:                                              ; preds = %148, %147, %131, %107, %96, %73, %67, %43, %23
  %153 = load i32, ptr %19, align 4, !tbaa !8
  %154 = icmp eq i32 %153, 0
  br i1 %154, label %155, label %160

155:                                              ; preds = %152
  %156 = load i32, ptr %18, align 4, !tbaa !8
  %157 = icmp ne i32 %156, 0
  br i1 %157, label %158, label %160

158:                                              ; preds = %155
  call void @ERR_new()
  call void @ERR_set_debug(ptr noundef @.str.1, i32 noundef 700, ptr noundef @__func__.PEM_write_bio)
  %159 = load i32, ptr %18, align 4, !tbaa !8
  call void (i32, i32, ptr, ...) @ERR_set_error(i32 noundef 9, i32 noundef %159, ptr noundef null)
  br label %160

160:                                              ; preds = %158, %155, %152
  %161 = load ptr, ptr %17, align 8, !tbaa !35
  call void @EVP_ENCODE_CTX_free(ptr noundef %161)
  %162 = load ptr, ptr %16, align 8, !tbaa !3
  call void @CRYPTO_clear_free(ptr noundef %162, i64 noundef 8192, ptr noundef @.str.1, i32 noundef 702)
  %163 = load i32, ptr %19, align 4, !tbaa !8
  call void @llvm.lifetime.end.p0(i64 4, ptr %19) #8
  call void @llvm.lifetime.end.p0(i64 4, ptr %18) #8
  call void @llvm.lifetime.end.p0(i64 8, ptr %17) #8
  call void @llvm.lifetime.end.p0(i64 8, ptr %16) #8
  call void @llvm.lifetime.end.p0(i64 4, ptr %15) #8
  call void @llvm.lifetime.end.p0(i64 4, ptr %14) #8
  call void @llvm.lifetime.end.p0(i64 4, ptr %13) #8
  call void @llvm.lifetime.end.p0(i64 4, ptr %12) #8
  call void @llvm.lifetime.end.p0(i64 4, ptr %11) #8
  ret i32 %163
}