; Function Attrs: nounwind uwtable
define i32 @PEM_write_bio(ptr noundef %0, ptr noundef %1, ptr noundef %2, ptr noundef %3, i64 noundef %4) local_unnamed_addr #0 {
  %6 = alloca i32, align 4
  call void @llvm.lifetime.start.p0(i64 4, ptr nonnull %6) #10
  %7 = tail call ptr @EVP_ENCODE_CTX_new() #10
  %8 = icmp eq ptr %7, null
  br i1 %8, label %.loopexit, label %9

9:                                                ; preds = %5
  tail call void @EVP_EncodeInit(ptr noundef nonnull %7) #10
  %10 = tail call i64 @strlen(ptr noundef nonnull dereferenceable(1) %1) #9
  %11 = trunc i64 %10 to i32
  %12 = tail call i32 @BIO_write(ptr noundef %0, ptr noundef nonnull @.str.16, i32 noundef 11) #10
  %.not = icmp eq i32 %12, 11
  br i1 %.not, label %13, label %.loopexit

13:                                               ; preds = %9
  %14 = tail call i32 @BIO_write(ptr noundef %0, ptr noundef nonnull %1, i32 noundef %11) #10
  %.not62 = icmp eq i32 %14, %11
  br i1 %.not62, label %15, label %.loopexit

15:                                               ; preds = %13
  %16 = tail call i32 @BIO_write(ptr noundef %0, ptr noundef nonnull @.str.17, i32 noundef 6) #10
  %.not63 = icmp eq i32 %16, 6
  br i1 %.not63, label %17, label %.loopexit

17:                                               ; preds = %15
  %.not64 = icmp eq ptr %2, null
  br i1 %.not64, label %.thread, label %18

18:                                               ; preds = %17
  %19 = tail call i64 @strlen(ptr noundef nonnull dereferenceable(1) %2) #9
  %20 = trunc i64 %19 to i32
  %21 = icmp sgt i32 %20, 0
  br i1 %21, label %22, label %.thread

22:                                               ; preds = %18
  %23 = tail call i32 @BIO_write(ptr noundef %0, ptr noundef nonnull %2, i32 noundef %20) #10
  %.not65 = icmp eq i32 %23, %20
  br i1 %.not65, label %24, label %.loopexit

24:                                               ; preds = %22
  %25 = tail call i32 @BIO_write(ptr noundef %0, ptr noundef nonnull @.str.9, i32 noundef 1) #10
  %.not66 = icmp eq i32 %25, 1
  br i1 %.not66, label %.thread, label %.loopexit

.thread:                                          ; preds = %17, %24, %18
  %26 = tail call noalias ptr @CRYPTO_malloc(i64 noundef 8192, ptr noundef nonnull @.str.1, i32 noundef 666) #10
  %27 = icmp eq ptr %26, null
  br i1 %27, label %.thread74, label %.preheader

.preheader:                                       ; preds = %.thread
  %28 = icmp sgt i64 %4, 0
  br i1 %28, label %.lr.ph, label %._crit_edge

.lr.ph:                                           ; preds = %.preheader, %39
  %.05184 = phi i64 [ %42, %39 ], [ %4, %.preheader ]
  %.05383 = phi i32 [ %43, %39 ], [ 0, %.preheader ]
  %.05482 = phi i32 [ %41, %39 ], [ 0, %.preheader ]
  %29 = call i64 @llvm.umin.i64(i64 %.05184, i64 5120)
  %30 = trunc nuw nsw i64 %29 to i32
  %31 = zext nneg i32 %.05383 to i64
  %32 = getelementptr inbounds nuw i8, ptr %3, i64 %31
  %33 = call i32 @EVP_EncodeUpdate(ptr noundef nonnull %7, ptr noundef nonnull %26, ptr noundef nonnull %6, ptr noundef %32, i32 noundef %30) #10
  %.not71 = icmp eq i32 %33, 0
  br i1 %.not71, label %.loopexit, label %34

34:                                               ; preds = %.lr.ph
  %35 = load i32, ptr %6, align 4, !tbaa !20
  %.not72 = icmp eq i32 %35, 0
  br i1 %.not72, label %39, label %36

36:                                               ; preds = %34
  %37 = call i32 @BIO_write(ptr noundef %0, ptr noundef nonnull %26, i32 noundef %35) #10
  %38 = load i32, ptr %6, align 4, !tbaa !20
  %.not73 = icmp eq i32 %37, %38
  br i1 %.not73, label %39, label %.loopexit

39:                                               ; preds = %36, %34
  %40 = phi i32 [ %37, %36 ], [ 0, %34 ]
  %41 = add nsw i32 %40, %.05482
  %42 = sub nsw i64 %.05184, %29
  %43 = add nuw nsw i32 %.05383, %30
  %44 = icmp sgt i64 %42, 0
  br i1 %44, label %.lr.ph, label %._crit_edge, !llvm.loop !25

._crit_edge:                                      ; preds = %39, %.preheader
  %.054.lcssa = phi i32 [ 0, %.preheader ], [ %41, %39 ]
  call void @EVP_EncodeFinal(ptr noundef nonnull %7, ptr noundef nonnull %26, ptr noundef nonnull %6) #10
  %45 = load i32, ptr %6, align 4, !tbaa !20
  %46 = icmp sgt i32 %45, 0
  br i1 %46, label %47, label %50

47:                                               ; preds = %._crit_edge
  %48 = call i32 @BIO_write(ptr noundef %0, ptr noundef nonnull %26, i32 noundef %45) #10
  %49 = load i32, ptr %6, align 4, !tbaa !20
  %.not67 = icmp eq i32 %48, %49
  br i1 %.not67, label %50, label %.loopexit

50:                                               ; preds = %47, %._crit_edge
  %51 = call i32 @BIO_write(ptr noundef %0, ptr noundef nonnull @.str.18, i32 noundef 9) #10
  %.not68 = icmp eq i32 %51, 9
  br i1 %.not68, label %52, label %.loopexit

52:                                               ; preds = %50
  %53 = call i32 @BIO_write(ptr noundef %0, ptr noundef nonnull %1, i32 noundef %11) #10
  %.not69 = icmp eq i32 %53, %11
  br i1 %.not69, label %54, label %.loopexit

54:                                               ; preds = %52
  %55 = call i32 @BIO_write(ptr noundef %0, ptr noundef nonnull @.str.17, i32 noundef 6) #10
  %.not70 = icmp eq i32 %55, 6
  br i1 %.not70, label %56, label %.loopexit

56:                                               ; preds = %54
  %57 = load i32, ptr %6, align 4, !tbaa !20
  %58 = add nsw i32 %57, %.054.lcssa
  br label %.thread74

.loopexit:                                        ; preds = %.lr.ph, %36, %5, %15, %13, %9, %24, %22, %47, %54, %52, %50
  %.052 = phi ptr [ null, %5 ], [ null, %15 ], [ null, %13 ], [ null, %9 ], [ null, %24 ], [ null, %22 ], [ %26, %47 ], [ %26, %54 ], [ %26, %52 ], [ %26, %50 ], [ %26, %36 ], [ %26, %.lr.ph ]
  %.050 = phi i32 [ 524294, %5 ], [ 524320, %15 ], [ 524320, %13 ], [ 524320, %9 ], [ 524320, %24 ], [ 524320, %22 ], [ 524320, %47 ], [ 524320, %54 ], [ 524320, %52 ], [ 524320, %50 ], [ 524294, %.lr.ph ], [ 524320, %36 ]
  call void @ERR_new() #10
  call void @ERR_set_debug(ptr noundef nonnull @.str.1, i32 noundef 700, ptr noundef nonnull @__func__.PEM_write_bio) #10
  call void (i32, i32, ptr, ...) @ERR_set_error(i32 noundef 9, i32 noundef %.050, ptr noundef null) #10
  br label %.thread74

.thread74:                                        ; preds = %56, %.thread, %.loopexit
  %.080 = phi i32 [ 0, %.loopexit ], [ %58, %56 ], [ 0, %.thread ]
  %.05279 = phi ptr [ %.052, %.loopexit ], [ %26, %56 ], [ null, %.thread ]
  call void @EVP_ENCODE_CTX_free(ptr noundef %7) #10
  call void @CRYPTO_clear_free(ptr noundef %.05279, i64 noundef 8192, ptr noundef nonnull @.str.1, i32 noundef 702) #10
  call void @llvm.lifetime.end.p0(i64 4, ptr nonnull %6) #10
  ret i32 %.080
}